target datalayout = "e-m:e-p270:32:32-p271:32:32-p272:64:64-i64:64-i128:128-f80:128-n8:16:32:64-S128"
target triple = "x86_64-pc-linux-gnu"

@hf_gsm_a_dtap_ue_test_loop_mode = internal global i32 0, align 4
@hf_gsm_a_dtap_uplink_rlc_sdu_size = internal global i32 0, align 4
@hf_gsm_a_dtap_radio_bearer = internal global i32 0, align 4
@hf_gsm_a_dtap_mbms_short_transmission_identity = internal global i32 0, align 4
@ett_ue_test_loop_mode = internal global i32 0, align 4
@.str.963 = private unnamed_addr constant [19 x i8] c"LB setup RB IE: %d\00", align 1

; Function Attrs: null_pointer_is_valid sspstrong uwtable
define internal zeroext i16 @de_tp_ue_test_loop_mode(ptr noundef %0, ptr noundef %1, ptr noundef %2, i32 noundef %3, i32 noundef %4, ptr noundef %5, i32 noundef %6) #1 {
  %8 = alloca ptr, align 8
  %9 = alloca ptr, align 8
  %10 = alloca ptr, align 8
  %11 = alloca i32, align 4
  %12 = alloca i32, align 4
  %13 = alloca ptr, align 8
  %14 = alloca i32, align 4
  %15 = alloca i32, align 4
  %16 = alloca i8, align 1
  %17 = alloca i8, align 1
  %18 = alloca i8, align 1
  %19 = alloca i8, align 1
  %20 = alloca ptr, align 8
  store ptr %0, ptr %8, align 8
  store ptr %1, ptr %9, align 8
  store ptr %2, ptr %10, align 8
  store i32 %3, ptr %11, align 4
  store i32 %4, ptr %12, align 4
  store ptr %5, ptr %13, align 8
  store i32 %6, ptr %14, align 4
  call void @llvm.lifetime.start.p0(i64 4, ptr %15) #7
  call void @llvm.lifetime.start.p0(i64 1, ptr %16) #7
  call void @llvm.lifetime.start.p0(i64 1, ptr %17) #7
  call void @llvm.lifetime.start.p0(i64 1, ptr %18) #7
  call void @llvm.lifetime.start.p0(i64 1, ptr %19) #7
  call void @llvm.lifetime.start.p0(i64 8, ptr %20) #7
  %21 = load i32, ptr %11, align 4
  store i32 %21, ptr %15, align 4
  %22 = load ptr, ptr %8, align 8
  %23 = load i32, ptr %15, align 4
  %24 = call zeroext i8 @tvb_get_uint8(ptr noundef %22, i32 noundef %23)
  store i8 %24, ptr %16, align 1
  %25 = load ptr, ptr %9, align 8
  %26 = load i32, ptr @hf_gsm_a_dtap_ue_test_loop_mode, align 4
  %27 = load ptr, ptr %8, align 8
  %28 = load i32, ptr %15, align 4
  %29 = call ptr @proto_tree_add_item(ptr noundef %25, i32 noundef %26, ptr noundef %27, i32 noundef %28, i32 noundef 1, i32 noundef 0)
  %30 = load i32, ptr %15, align 4
  %31 = add i32 %30, 1
  store i32 %31, ptr %15, align 4
  %32 = load i8, ptr %16, align 1
  %33 = zext i8 %32 to i32
  %34 = and i32 %33, 3
  switch i32 %34, label %99 [
    i32 0, label %35
    i32 2, label %84
  ]

35:                                               ; preds = %7
  %36 = load ptr, ptr %8, align 8
  %37 = load i32, ptr %15, align 4
  %38 = call zeroext i8 @tvb_get_uint8(ptr noundef %36, i32 noundef %37)
  store i8 %38, ptr %17, align 1
  %39 = load i32, ptr %15, align 4
  %40 = add i32 %39, 1
  store i32 %40, ptr %15, align 4
  store i8 0, ptr %18, align 1
  store i8 0, ptr %19, align 1
  br label %41

41:                                               ; preds = %76, %35
  %42 = load i8, ptr %18, align 1
  %43 = zext i8 %42 to i32
  %44 = load i8, ptr %17, align 1
  %45 = zext i8 %44 to i32
  %46 = icmp slt i32 %43, %45
  br i1 %46, label %47, label %51

47:                                               ; preds = %41
  %48 = load i8, ptr %19, align 1
  %49 = zext i8 %48 to i32
  %50 = icmp slt i32 %49, 4
  br label %51

51:                                               ; preds = %47, %41
  %52 = phi i1 [ false, %41 ], [ %50, %47 ]
  br i1 %52, label %53, label %83

53:                                               ; preds = %51
  %54 = load ptr, ptr %9, align 8
  %55 = load ptr, ptr %8, align 8
  %56 = load i32, ptr %15, align 4
  %57 = load i32, ptr @ett_ue_test_loop_mode, align 4
  %58 = load i8, ptr %19, align 1
  %59 = zext i8 %58 to i32
  %60 = add i32 %59, 1
  %61 = call ptr (ptr, ptr, i32, i32, i32, ptr, ptr, ...) @proto_tree_add_subtree_format(ptr noundef %54, ptr noundef %55, i32 noundef %56, i32 noundef 3, i32 noundef %57, ptr noundef null, ptr noundef @.str.963, i32 noundef %60)
  store ptr %61, ptr %20, align 8
  %62 = load ptr, ptr %20, align 8
  %63 = load i32, ptr @hf_gsm_a_dtap_uplink_rlc_sdu_size, align 4
  %64 = load ptr, ptr %8, align 8
  %65 = load i32, ptr %15, align 4
  %66 = call ptr @proto_tree_add_item(ptr noundef %62, i32 noundef %63, ptr noundef %64, i32 noundef %65, i32 noundef 2, i32 noundef 0)
  %67 = load i32, ptr %15, align 4
  %68 = add i32 %67, 2
  store i32 %68, ptr %15, align 4
  %69 = load ptr, ptr %20, align 8
  %70 = load i32, ptr @hf_gsm_a_dtap_radio_bearer, align 4
  %71 = load ptr, ptr %8, align 8
  %72 = load i32, ptr %15, align 4
  %73 = call ptr @proto_tree_add_item(ptr noundef %69, i32 noundef %70, ptr noundef %71, i32 noundef %72, i32 noundef 1, i32 noundef 0)
  %74 = load i32, ptr %15, align 4
  %75 = add i32 %74, 1
  store i32 %75, ptr %15, align 4
  br label %76

76:                                               ; preds = %53
  %77 = load i8, ptr %18, align 1
  %78 = zext i8 %77 to i32
  %79 = add i32 %78, 3
  %80 = trunc i32 %79 to i8
  store i8 %80, ptr %18, align 1
  %81 = load i8, ptr %19, align 1
  %82 = add i8 %81, 1
  store i8 %82, ptr %19, align 1
  br label %41, !llvm.loop !13

83:                                               ; preds = %51
  br label %99

84:                                               ; preds = %7
  %85 = load ptr, ptr %8, align 8
  %86 = load i32, ptr %15, align 4
  %87 = call zeroext i8 @tvb_get_uint8(ptr noundef %85, i32 noundef %86)
  store i8 %87, ptr %16, align 1
  %88 = load i32, ptr %15, align 4
  %89 = add i32 %88, 1
  store i32 %89, ptr %15, align 4
  %90 = load ptr, ptr %9, align 8
  %91 = load i32, ptr @hf_gsm_a_dtap_mbms_short_transmission_identity, align 4
  %92 = load ptr, ptr %8, align 8
  %93 = load i32, ptr %15, align 4
  %94 = load i8, ptr %16, align 1
  %95 = zext i8 %94 to i32
  %96 = and i32 %95, 31
  %97 = add i32 %96, 1
  %98 = call ptr @proto_tree_add_uint(ptr noundef %90, i32 noundef %91, ptr noundef %92, i32 noundef %93, i32 noundef 1, i32 noundef %97)
  br label %99

99:                                               ; preds = %7, %84, %83
  %100 = load i32, ptr %15, align 4
  %101 = load i32, ptr %11, align 4
  %102 = sub i32 %100, %101
  %103 = trunc i32 %102 to i16
  call void @llvm.lifetime.end.p0(i64 8, ptr %20) #7
  call void @llvm.lifetime.end.p0(i64 1, ptr %19) #7
  call void @llvm.lifetime.end.p0(i64 1, ptr %18) #7
  call void @llvm.lifetime.end.p0(i64 1, ptr %17) #7
  call void @llvm.lifetime.end.p0(i64 1, ptr %16) #7
  call void @llvm.lifetime.end.p0(i64 4, ptr %15) #7
  ret i16 %103
}