; Function Attrs: null_pointer_is_valid sspstrong uwtable
define internal noundef zeroext i16 @de_tp_ue_test_loop_mode(ptr noundef %0, ptr noundef %1, ptr readnone captures(none) %2, i32 noundef %3, i32 %4, ptr readnone captures(none) %5, i32 %6) #1 {
  %8 = tail call zeroext i8 @tvb_get_uint8(ptr noundef %0, i32 noundef %3)
  %9 = load i32, ptr @hf_gsm_a_dtap_ue_test_loop_mode, align 4
  %10 = tail call ptr @proto_tree_add_item(ptr noundef %1, i32 noundef %9, ptr noundef %0, i32 noundef %3, i32 noundef 1, i32 noundef 0)
  %11 = add i32 %3, 1
  %12 = and i8 %8, 3
  switch i8 %12, label %.loopexit [
    i8 0, label %13
    i8 2, label %31
  ]

13:                                               ; preds = %7
  %14 = tail call zeroext i8 @tvb_get_uint8(ptr noundef %0, i32 noundef %11)
  %15 = add i32 %3, 2
  %16 = zext i8 %14 to i32
  %.not = icmp eq i8 %14, 0
  br i1 %.not, label %.loopexit, label %.lr.ph

.lr.ph:                                           ; preds = %13, %.lr.ph
  %indvars.iv = phi i32 [ %indvars.iv.next, %.lr.ph ], [ 0, %13 ]
  %17 = phi i32 [ %27, %.lr.ph ], [ 0, %13 ]
  %.142 = phi i32 [ %25, %.lr.ph ], [ %15, %13 ]
  %18 = load i32, ptr @ett_ue_test_loop_mode, align 4
  %indvars.iv.next = add nuw nsw i32 %indvars.iv, 1
  %19 = tail call ptr (ptr, ptr, i32, i32, i32, ptr, ptr, ...) @proto_tree_add_subtree_format(ptr noundef %1, ptr noundef %0, i32 noundef %.142, i32 noundef 3, i32 noundef %18, ptr noundef null, ptr noundef nonnull @.str.963, i32 noundef %indvars.iv.next)
  %20 = load i32, ptr @hf_gsm_a_dtap_uplink_rlc_sdu_size, align 4
  %21 = tail call ptr @proto_tree_add_item(ptr noundef %19, i32 noundef %20, ptr noundef %0, i32 noundef %.142, i32 noundef 2, i32 noundef 0)
  %22 = add i32 %.142, 2
  %23 = load i32, ptr @hf_gsm_a_dtap_radio_bearer, align 4
  %24 = tail call ptr @proto_tree_add_item(ptr noundef %19, i32 noundef %23, ptr noundef %0, i32 noundef %22, i32 noundef 1, i32 noundef 0)
  %25 = add i32 %.142, 3
  %26 = add nuw nsw i32 %17, 3
  %27 = and i32 %26, 255
  %28 = icmp samesign ult i32 %27, %16
  %29 = icmp samesign ult i32 %indvars.iv, 3
  %30 = select i1 %28, i1 %29, i1 false
  br i1 %30, label %.lr.ph, label %.loopexit, !llvm.loop !11

31:                                               ; preds = %7
  %32 = tail call zeroext i8 @tvb_get_uint8(ptr noundef %0, i32 noundef %11)
  %33 = add i32 %3, 2
  %34 = load i32, ptr @hf_gsm_a_dtap_mbms_short_transmission_identity, align 4
  %35 = and i8 %32, 31
  %narrow = add nuw nsw i8 %35, 1
  %36 = zext nneg i8 %narrow to i32
  %37 = tail call ptr @proto_tree_add_uint(ptr noundef %1, i32 noundef %34, ptr noundef %0, i32 noundef %33, i32 noundef 1, i32 noundef %36)
  br label %.loopexit

.loopexit:                                        ; preds = %.lr.ph, %13, %31, %7
  %.0 = phi i32 [ %11, %7 ], [ %33, %31 ], [ %15, %13 ], [ %25, %.lr.ph ]
  %38 = sub i32 %.0, %3
  %39 = trunc i32 %38 to i16
  ret i16 %39
}